; Function Attrs: uwtable
define void @_ZThn1712_N6colvar8gzpathCV31updateDistanceToReferenceFramesEv(ptr noundef %0) unnamed_addr #5 align 2 {
  %2 = getelementptr inbounds i8, ptr %0, i64 -1712
  %3 = getelementptr inbounds i8, ptr %0, i64 288
  %4 = load ptr, ptr %2, align 8
  %5 = getelementptr inbounds i8, ptr %4, i64 216
  %6 = load ptr, ptr %5, align 8
  tail call void %6(ptr noundef nonnull align 8 dereferenceable(1712) %2, ptr noundef nonnull align 8 dereferenceable(24) %3)
  ret void
}